target datalayout = "e-m:e-p270:32:32-p271:32:32-p272:64:64-i64:64-i128:128-f80:128-n8:16:32:64-S128"
target triple = "x86_64-pc-linux-gnu"

%struct.mbedtls_pk_info_t = type { i32, ptr, ptr, ptr, ptr, ptr, ptr, ptr, ptr, ptr, ptr, ptr }
%struct.mbedtls_pk_context = type { ptr, ptr }
%struct.mbedtls_pk_rsassa_pss_options = type { i32, i32 }

; Function Attrs: inlinehint nounwind uwtable
define internal zeroext i8 @mbedtls_md_get_size_from_type(i32 noundef %0) #3 {
  %2 = alloca i32, align 4
  store i32 %0, ptr %2, align 4, !tbaa !16
  %3 = load i32, ptr %2, align 4, !tbaa !16
  %4 = call ptr @mbedtls_md_info_from_type(i32 noundef %3)
  %5 = call zeroext i8 @mbedtls_md_get_size(ptr noundef %4)
  ret i8 %5
}

; Function Attrs: inlinehint nounwind uwtable
define internal i32 @pk_hashlen_helper(i32 noundef %0, ptr noundef %1) #3 {
  %3 = alloca i32, align 4
  %4 = alloca i32, align 4
  %5 = alloca ptr, align 8
  store i32 %0, ptr %4, align 4, !tbaa !16
  store ptr %1, ptr %5, align 8, !tbaa !58
  %6 = load ptr, ptr %5, align 8, !tbaa !58
  %7 = load i64, ptr %6, align 8, !tbaa !41
  %8 = icmp ne i64 %7, 0
  br i1 %8, label %9, label %10

9:                                                ; preds = %2
  store i32 0, ptr %3, align 4
  br label %20

10:                                               ; preds = %2
  %11 = load i32, ptr %4, align 4, !tbaa !16
  %12 = call zeroext i8 @mbedtls_md_get_size_from_type(i32 noundef %11)
  %13 = zext i8 %12 to i64
  %14 = load ptr, ptr %5, align 8, !tbaa !58
  store i64 %13, ptr %14, align 8, !tbaa !41
  %15 = load ptr, ptr %5, align 8, !tbaa !58
  %16 = load i64, ptr %15, align 8, !tbaa !41
  %17 = icmp eq i64 %16, 0
  br i1 %17, label %18, label %19

18:                                               ; preds = %10
  store i32 -1, ptr %3, align 4
  br label %20

19:                                               ; preds = %10
  store i32 0, ptr %3, align 4
  br label %20

20:                                               ; preds = %19, %18, %9
  %21 = load i32, ptr %3, align 4
  ret i32 %21
}

; Function Attrs: nounwind uwtable
define hidden i64 @mbedtls_pk_get_bitlen(ptr noundef %0) #0 {
  %2 = alloca i64, align 8
  %3 = alloca ptr, align 8
  store ptr %0, ptr %3, align 8, !tbaa !3
  %4 = load ptr, ptr %3, align 8, !tbaa !3
  %5 = icmp eq ptr %4, null
  br i1 %5, label %11, label %6

6:                                                ; preds = %1
  %7 = load ptr, ptr %3, align 8, !tbaa !3
  %8 = getelementptr inbounds nuw %struct.mbedtls_pk_context, ptr %7, i32 0, i32 0
  %9 = load ptr, ptr %8, align 8, !tbaa !8
  %10 = icmp eq ptr %9, null
  br i1 %10, label %11, label %12

11:                                               ; preds = %6, %1
  store i64 0, ptr %2, align 8
  br label %20

12:                                               ; preds = %6
  %13 = load ptr, ptr %3, align 8, !tbaa !3
  %14 = getelementptr inbounds nuw %struct.mbedtls_pk_context, ptr %13, i32 0, i32 0
  %15 = load ptr, ptr %14, align 8, !tbaa !8
  %16 = getelementptr inbounds nuw %struct.mbedtls_pk_info_t, ptr %15, i32 0, i32 2
  %17 = load ptr, ptr %16, align 8, !tbaa !50
  %18 = load ptr, ptr %3, align 8, !tbaa !3
  %19 = call i64 %17(ptr noundef %18)
  store i64 %19, ptr %2, align 8
  br label %20

20:                                               ; preds = %12, %11
  %21 = load i64, ptr %2, align 8
  ret i64 %21
}

; Function Attrs: nounwind uwtable
define hidden i32 @mbedtls_pk_verify_restartable(ptr noundef %0, i32 noundef %1, ptr noundef %2, i64 noundef %3, ptr noundef %4, i64 noundef %5, ptr noundef %6) #0 {
  %8 = alloca i32, align 4
  %9 = alloca ptr, align 8
  %10 = alloca i32, align 4
  %11 = alloca ptr, align 8
  %12 = alloca i64, align 8
  %13 = alloca ptr, align 8
  %14 = alloca i64, align 8
  %15 = alloca ptr, align 8
  store ptr %0, ptr %9, align 8, !tbaa !3
  store i32 %1, ptr %10, align 4, !tbaa !16
  store ptr %2, ptr %11, align 8, !tbaa !56
  store i64 %3, ptr %12, align 8, !tbaa !41
  store ptr %4, ptr %13, align 8, !tbaa !56
  store i64 %5, ptr %14, align 8, !tbaa !41
  store ptr %6, ptr %15, align 8, !tbaa !19
  %16 = load i32, ptr %10, align 4, !tbaa !16
  %17 = icmp ne i32 %16, 0
  br i1 %17, label %21, label %18

18:                                               ; preds = %7
  %19 = load i64, ptr %12, align 8, !tbaa !41
  %20 = icmp ne i64 %19, 0
  br i1 %20, label %21, label %25

21:                                               ; preds = %18, %7
  %22 = load ptr, ptr %11, align 8, !tbaa !56
  %23 = icmp eq ptr %22, null
  br i1 %23, label %24, label %25

24:                                               ; preds = %21
  store i32 -16000, ptr %8, align 4
  br label %56

25:                                               ; preds = %21, %18
  %26 = load ptr, ptr %9, align 8, !tbaa !3
  %27 = getelementptr inbounds nuw %struct.mbedtls_pk_context, ptr %26, i32 0, i32 0
  %28 = load ptr, ptr %27, align 8, !tbaa !8
  %29 = icmp eq ptr %28, null
  br i1 %29, label %34, label %30

30:                                               ; preds = %25
  %31 = load i32, ptr %10, align 4, !tbaa !16
  %32 = call i32 @pk_hashlen_helper(i32 noundef %31, ptr noundef %12)
  %33 = icmp ne i32 %32, 0
  br i1 %33, label %34, label %35

34:                                               ; preds = %30, %25
  store i32 -16000, ptr %8, align 4
  br label %56

35:                                               ; preds = %30
  %36 = load ptr, ptr %9, align 8, !tbaa !3
  %37 = getelementptr inbounds nuw %struct.mbedtls_pk_context, ptr %36, i32 0, i32 0
  %38 = load ptr, ptr %37, align 8, !tbaa !8
  %39 = getelementptr inbounds nuw %struct.mbedtls_pk_info_t, ptr %38, i32 0, i32 4
  %40 = load ptr, ptr %39, align 8, !tbaa !57
  %41 = icmp eq ptr %40, null
  br i1 %41, label %42, label %43

42:                                               ; preds = %35
  store i32 -16128, ptr %8, align 4
  br label %56

43:                                               ; preds = %35
  %44 = load ptr, ptr %9, align 8, !tbaa !3
  %45 = getelementptr inbounds nuw %struct.mbedtls_pk_context, ptr %44, i32 0, i32 0
  %46 = load ptr, ptr %45, align 8, !tbaa !8
  %47 = getelementptr inbounds nuw %struct.mbedtls_pk_info_t, ptr %46, i32 0, i32 4
  %48 = load ptr, ptr %47, align 8, !tbaa !57
  %49 = load ptr, ptr %9, align 8, !tbaa !3
  %50 = load i32, ptr %10, align 4, !tbaa !16
  %51 = load ptr, ptr %11, align 8, !tbaa !56
  %52 = load i64, ptr %12, align 8, !tbaa !41
  %53 = load ptr, ptr %13, align 8, !tbaa !56
  %54 = load i64, ptr %14, align 8, !tbaa !41
  %55 = call i32 %48(ptr noundef %49, i32 noundef %50, ptr noundef %51, i64 noundef %52, ptr noundef %53, i64 noundef %54)
  store i32 %55, ptr %8, align 4
  br label %56

56:                                               ; preds = %43, %42, %34, %24
  %57 = load i32, ptr %8, align 4
  ret i32 %57
}

; Function Attrs: inlinehint nounwind uwtable
define internal ptr @mbedtls_pk_rsa(ptr %0, ptr %1) #3 {
  %3 = alloca ptr, align 8
  %4 = alloca %struct.mbedtls_pk_context, align 8
  %5 = getelementptr inbounds nuw { ptr, ptr }, ptr %4, i32 0, i32 0
  store ptr %0, ptr %5, align 8
  %6 = getelementptr inbounds nuw { ptr, ptr }, ptr %4, i32 0, i32 1
  store ptr %1, ptr %6, align 8
  %7 = call i32 @mbedtls_pk_get_type(ptr noundef %4)
  switch i32 %7, label %11 [
    i32 1, label %8
  ]

8:                                                ; preds = %2
  %9 = getelementptr inbounds nuw %struct.mbedtls_pk_context, ptr %4, i32 0, i32 1
  %10 = load ptr, ptr %9, align 8, !tbaa !11
  store ptr %10, ptr %3, align 8
  br label %12

11:                                               ; preds = %2
  store ptr null, ptr %3, align 8
  br label %12

12:                                               ; preds = %11, %8
  %13 = load ptr, ptr %3, align 8
  ret ptr %13
}

; Function Attrs: inlinehint nounwind uwtable
define internal i64 @mbedtls_pk_get_len(ptr noundef %0) #3 {
  %2 = alloca ptr, align 8
  store ptr %0, ptr %2, align 8, !tbaa !3
  %3 = load ptr, ptr %2, align 8, !tbaa !3
  %4 = call i64 @mbedtls_pk_get_bitlen(ptr noundef %3)
  %5 = add i64 %4, 7
  %6 = udiv i64 %5, 8
  ret i64 %6
}

; Function Attrs: nounwind uwtable
define hidden i32 @mbedtls_pk_get_type(ptr noundef %0) #0 {
  %2 = alloca i32, align 4
  %3 = alloca ptr, align 8
  store ptr %0, ptr %3, align 8, !tbaa !3
  %4 = load ptr, ptr %3, align 8, !tbaa !3
  %5 = icmp eq ptr %4, null
  br i1 %5, label %11, label %6

6:                                                ; preds = %1
  %7 = load ptr, ptr %3, align 8, !tbaa !3
  %8 = getelementptr inbounds nuw %struct.mbedtls_pk_context, ptr %7, i32 0, i32 0
  %9 = load ptr, ptr %8, align 8, !tbaa !8
  %10 = icmp eq ptr %9, null
  br i1 %10, label %11, label %12

11:                                               ; preds = %6, %1
  store i32 0, ptr %2, align 4
  br label %18

12:                                               ; preds = %6
  %13 = load ptr, ptr %3, align 8, !tbaa !3
  %14 = getelementptr inbounds nuw %struct.mbedtls_pk_context, ptr %13, i32 0, i32 0
  %15 = load ptr, ptr %14, align 8, !tbaa !8
  %16 = getelementptr inbounds nuw %struct.mbedtls_pk_info_t, ptr %15, i32 0, i32 0
  %17 = load i32, ptr %16, align 8, !tbaa !44
  store i32 %17, ptr %2, align 4
  br label %18

18:                                               ; preds = %12, %11
  %19 = load i32, ptr %2, align 4
  ret i32 %19
}

; Function Attrs: nounwind uwtable
define hidden i32 @mbedtls_pk_verify(ptr noundef %0, i32 noundef %1, ptr noundef %2, i64 noundef %3, ptr noundef %4, i64 noundef %5) #0 {
  %7 = alloca ptr, align 8
  %8 = alloca i32, align 4
  %9 = alloca ptr, align 8
  %10 = alloca i64, align 8
  %11 = alloca ptr, align 8
  %12 = alloca i64, align 8
  store ptr %0, ptr %7, align 8, !tbaa !3
  store i32 %1, ptr %8, align 4, !tbaa !16
  store ptr %2, ptr %9, align 8, !tbaa !56
  store i64 %3, ptr %10, align 8, !tbaa !41
  store ptr %4, ptr %11, align 8, !tbaa !56
  store i64 %5, ptr %12, align 8, !tbaa !41
  %13 = load ptr, ptr %7, align 8, !tbaa !3
  %14 = load i32, ptr %8, align 4, !tbaa !16
  %15 = load ptr, ptr %9, align 8, !tbaa !56
  %16 = load i64, ptr %10, align 8, !tbaa !41
  %17 = load ptr, ptr %11, align 8, !tbaa !56
  %18 = load i64, ptr %12, align 8, !tbaa !41
  %19 = call i32 @mbedtls_pk_verify_restartable(ptr noundef %13, i32 noundef %14, ptr noundef %15, i64 noundef %16, ptr noundef %17, i64 noundef %18, ptr noundef null)
  ret i32 %19
}

; Function Attrs: nounwind uwtable
define hidden i32 @mbedtls_pk_can_do(ptr noundef %0, i32 noundef %1) #0 {
  %3 = alloca i32, align 4
  %4 = alloca ptr, align 8
  %5 = alloca i32, align 4
  store ptr %0, ptr %4, align 8, !tbaa !3
  store i32 %1, ptr %5, align 4, !tbaa !16
  %6 = load ptr, ptr %4, align 8, !tbaa !3
  %7 = icmp eq ptr %6, null
  br i1 %7, label %13, label %8

8:                                                ; preds = %2
  %9 = load ptr, ptr %4, align 8, !tbaa !3
  %10 = getelementptr inbounds nuw %struct.mbedtls_pk_context, ptr %9, i32 0, i32 0
  %11 = load ptr, ptr %10, align 8, !tbaa !8
  %12 = icmp eq ptr %11, null
  br i1 %12, label %13, label %14

13:                                               ; preds = %8, %2
  store i32 0, ptr %3, align 4
  br label %22

14:                                               ; preds = %8
  %15 = load ptr, ptr %4, align 8, !tbaa !3
  %16 = getelementptr inbounds nuw %struct.mbedtls_pk_context, ptr %15, i32 0, i32 0
  %17 = load ptr, ptr %16, align 8, !tbaa !8
  %18 = getelementptr inbounds nuw %struct.mbedtls_pk_info_t, ptr %17, i32 0, i32 3
  %19 = load ptr, ptr %18, align 8, !tbaa !25
  %20 = load i32, ptr %5, align 4, !tbaa !16
  %21 = call i32 %19(i32 noundef %20)
  store i32 %21, ptr %3, align 4
  br label %22

22:                                               ; preds = %14, %13
  %23 = load i32, ptr %3, align 4
  ret i32 %23
}

; Function Attrs: nounwind uwtable
define hidden i32 @mbedtls_pk_verify_ext(i32 noundef %0, ptr noundef %1, ptr noundef %2, i32 noundef %3, ptr noundef %4, i64 noundef %5, ptr noundef %6, i64 noundef %7) #0 {
  %9 = alloca i32, align 4
  %10 = alloca i32, align 4
  %11 = alloca ptr, align 8
  %12 = alloca ptr, align 8
  %13 = alloca i32, align 4
  %14 = alloca ptr, align 8
  %15 = alloca i64, align 8
  %16 = alloca ptr, align 8
  %17 = alloca i64, align 8
  %18 = alloca i32, align 4
  %19 = alloca ptr, align 8
  %20 = alloca i32, align 4
  store i32 %0, ptr %10, align 4, !tbaa !16
  store ptr %1, ptr %11, align 8, !tbaa !19
  store ptr %2, ptr %12, align 8, !tbaa !3
  store i32 %3, ptr %13, align 4, !tbaa !16
  store ptr %4, ptr %14, align 8, !tbaa !56
  store i64 %5, ptr %15, align 8, !tbaa !41
  store ptr %6, ptr %16, align 8, !tbaa !56
  store i64 %7, ptr %17, align 8, !tbaa !41
  %21 = load i32, ptr %13, align 4, !tbaa !16
  %22 = icmp ne i32 %21, 0
  br i1 %22, label %26, label %23

23:                                               ; preds = %8
  %24 = load i64, ptr %15, align 8, !tbaa !41
  %25 = icmp ne i64 %24, 0
  br i1 %25, label %26, label %30

26:                                               ; preds = %23, %8
  %27 = load ptr, ptr %14, align 8, !tbaa !56
  %28 = icmp eq ptr %27, null
  br i1 %28, label %29, label %30

29:                                               ; preds = %26
  store i32 -16000, ptr %9, align 4
  br label %111

30:                                               ; preds = %26, %23
  %31 = load ptr, ptr %12, align 8, !tbaa !3
  %32 = getelementptr inbounds nuw %struct.mbedtls_pk_context, ptr %31, i32 0, i32 0
  %33 = load ptr, ptr %32, align 8, !tbaa !8
  %34 = icmp eq ptr %33, null
  br i1 %34, label %35, label %36

35:                                               ; preds = %30
  store i32 -16000, ptr %9, align 4
  br label %111

36:                                               ; preds = %30
  %37 = load ptr, ptr %12, align 8, !tbaa !3
  %38 = load i32, ptr %10, align 4, !tbaa !16
  %39 = call i32 @mbedtls_pk_can_do(ptr noundef %37, i32 noundef %38)
  %40 = icmp ne i32 %39, 0
  br i1 %40, label %42, label %41

41:                                               ; preds = %36
  store i32 -16128, ptr %9, align 4
  br label %111

42:                                               ; preds = %36
  %43 = load i32, ptr %10, align 4, !tbaa !16
  %44 = icmp ne i32 %43, 6
  br i1 %44, label %45, label %57

45:                                               ; preds = %42
  %46 = load ptr, ptr %11, align 8, !tbaa !19
  %47 = icmp ne ptr %46, null
  br i1 %47, label %48, label %49

48:                                               ; preds = %45
  store i32 -16000, ptr %9, align 4
  br label %111

49:                                               ; preds = %45
  %50 = load ptr, ptr %12, align 8, !tbaa !3
  %51 = load i32, ptr %13, align 4, !tbaa !16
  %52 = load ptr, ptr %14, align 8, !tbaa !56
  %53 = load i64, ptr %15, align 8, !tbaa !41
  %54 = load ptr, ptr %16, align 8, !tbaa !56
  %55 = load i64, ptr %17, align 8, !tbaa !41
  %56 = call i32 @mbedtls_pk_verify(ptr noundef %50, i32 noundef %51, ptr noundef %52, i64 noundef %53, ptr noundef %54, i64 noundef %55)
  store i32 %56, ptr %9, align 4
  br label %111

57:                                               ; preds = %42
  %58 = load ptr, ptr %12, align 8, !tbaa !3
  %59 = call i32 @mbedtls_pk_get_type(ptr noundef %58)
  %60 = icmp ne i32 %59, 1
  br i1 %60, label %61, label %62

61:                                               ; preds = %57
  store i32 -14720, ptr %9, align 4
  br label %111

62:                                               ; preds = %57
  call void @llvm.lifetime.start.p0(i64 4, ptr %18) #5
  store i32 -110, ptr %18, align 4, !tbaa !16
  call void @llvm.lifetime.start.p0(i64 8, ptr %19) #5
  %63 = load i32, ptr %13, align 4, !tbaa !16
  %64 = icmp eq i32 %63, 0
  br i1 %64, label %65, label %69

65:                                               ; preds = %62
  %66 = load i64, ptr %15, align 8, !tbaa !41
  %67 = icmp ult i64 4294967295, %66
  br i1 %67, label %68, label %69

68:                                               ; preds = %65
  store i32 -16000, ptr %9, align 4
  store i32 1, ptr %20, align 4
  br label %110

69:                                               ; preds = %65, %62
  %70 = load ptr, ptr %11, align 8, !tbaa !19
  %71 = icmp eq ptr %70, null
  br i1 %71, label %72, label %73

72:                                               ; preds = %69
  store i32 -16000, ptr %9, align 4
  store i32 1, ptr %20, align 4
  br label %110

73:                                               ; preds = %69
  %74 = load ptr, ptr %11, align 8, !tbaa !19
  store ptr %74, ptr %19, align 8, !tbaa !59
  %75 = load i64, ptr %17, align 8, !tbaa !41
  %76 = load ptr, ptr %12, align 8, !tbaa !3
  %77 = call i64 @mbedtls_pk_get_len(ptr noundef %76)
  %78 = icmp ult i64 %75, %77
  br i1 %78, label %79, label %80

79:                                               ; preds = %73
  store i32 -17280, ptr %9, align 4
  store i32 1, ptr %20, align 4
  br label %110

80:                                               ; preds = %73
  %81 = load ptr, ptr %12, align 8, !tbaa !3
  %82 = getelementptr inbounds nuw { ptr, ptr }, ptr %81, i32 0, i32 0
  %83 = load ptr, ptr %82, align 8
  %84 = getelementptr inbounds nuw { ptr, ptr }, ptr %81, i32 0, i32 1
  %85 = load ptr, ptr %84, align 8
  %86 = call ptr @mbedtls_pk_rsa(ptr %83, ptr %85)
  %87 = load i32, ptr %13, align 4, !tbaa !16
  %88 = load i64, ptr %15, align 8, !tbaa !41
  %89 = trunc i64 %88 to i32
  %90 = load ptr, ptr %14, align 8, !tbaa !56
  %91 = load ptr, ptr %19, align 8, !tbaa !59
  %92 = getelementptr inbounds nuw %struct.mbedtls_pk_rsassa_pss_options, ptr %91, i32 0, i32 0
  %93 = load i32, ptr %92, align 4, !tbaa !61
  %94 = load ptr, ptr %19, align 8, !tbaa !59
  %95 = getelementptr inbounds nuw %struct.mbedtls_pk_rsassa_pss_options, ptr %94, i32 0, i32 1
  %96 = load i32, ptr %95, align 4, !tbaa !63
  %97 = load ptr, ptr %16, align 8, !tbaa !56
  %98 = call i32 @mbedtls_rsa_rsassa_pss_verify_ext(ptr noundef %86, i32 noundef %87, i32 noundef %89, ptr noundef %90, i32 noundef %93, i32 noundef %96, ptr noundef %97)
  store i32 %98, ptr %18, align 4, !tbaa !16
  %99 = load i32, ptr %18, align 4, !tbaa !16
  %100 = icmp ne i32 %99, 0
  br i1 %100, label %101, label %103

101:                                              ; preds = %80
  %102 = load i32, ptr %18, align 4, !tbaa !16
  store i32 %102, ptr %9, align 4
  store i32 1, ptr %20, align 4
  br label %110

103:                                              ; preds = %80
  %104 = load i64, ptr %17, align 8, !tbaa !41
  %105 = load ptr, ptr %12, align 8, !tbaa !3
  %106 = call i64 @mbedtls_pk_get_len(ptr noundef %105)
  %107 = icmp ugt i64 %104, %106
  br i1 %107, label %108, label %109

108:                                              ; preds = %103
  store i32 -14592, ptr %9, align 4
  store i32 1, ptr %20, align 4
  br label %110

109:                                              ; preds = %103
  store i32 0, ptr %9, align 4
  store i32 1, ptr %20, align 4
  br label %110

110:                                              ; preds = %109, %108, %101, %79, %72, %68
  call void @llvm.lifetime.end.p0(i64 8, ptr %19) #5
  call void @llvm.lifetime.end.p0(i64 4, ptr %18) #5
  br label %111

111:                                              ; preds = %110, %61, %49, %48, %41, %35, %29
  %112 = load i32, ptr %9, align 4
  ret i32 %112
}