; Function Attrs: nounwind uwtable
define hidden i32 @mbedtls_pk_verify_ext(i32 noundef %0, ptr noundef readonly %1, ptr noundef %2, i32 noundef %3, ptr noundef %4, i64 noundef %5, ptr noundef %6, i64 noundef %7) local_unnamed_addr #1 {
  %9 = icmp ne i32 %3, 0
  %10 = icmp ne i64 %5, 0
  %or.cond = or i1 %9, %10
  %11 = icmp eq ptr %4, null
  %or.cond3 = and i1 %11, %or.cond
  br i1 %or.cond3, label %mbedtls_pk_verify.exit, label %12

12:                                               ; preds = %8
  %13 = load ptr, ptr %2, align 8, !tbaa !3
  %14 = icmp eq ptr %13, null
  br i1 %14, label %mbedtls_pk_verify.exit, label %mbedtls_pk_can_do.exit

mbedtls_pk_can_do.exit:                           ; preds = %12
  %15 = getelementptr inbounds nuw i8, ptr %13, i64 24
  %16 = load ptr, ptr %15, align 8, !tbaa !20
  %17 = tail call i32 %16(i32 noundef %0) #7
  %.not = icmp eq i32 %17, 0
  br i1 %.not, label %mbedtls_pk_verify.exit, label %18

18:                                               ; preds = %mbedtls_pk_can_do.exit
  %.not40 = icmp eq i32 %0, 6
  br i1 %.not40, label %33, label %19

19:                                               ; preds = %18
  %.not43 = icmp eq ptr %1, null
  br i1 %.not43, label %20, label %mbedtls_pk_verify.exit

20:                                               ; preds = %19
  %21 = load ptr, ptr %2, align 8, !tbaa !3
  %22 = icmp eq ptr %21, null
  br i1 %22, label %mbedtls_pk_verify.exit, label %23

23:                                               ; preds = %20
  %.not.i.i.i = icmp eq i64 %5, 0
  br i1 %.not.i.i.i, label %pk_hashlen_helper.exit.i.i, label %pk_hashlen_helper.exit.thread.i.i

pk_hashlen_helper.exit.i.i:                       ; preds = %23
  %24 = tail call ptr @mbedtls_md_info_from_type(i32 noundef %3) #7
  %25 = tail call zeroext i8 @mbedtls_md_get_size(ptr noundef %24) #7
  %.not.i.i = icmp eq i8 %25, 0
  br i1 %.not.i.i, label %mbedtls_pk_verify.exit, label %pk_hashlen_helper.exit.pk_hashlen_helper.exit.thread_crit_edge.i.i

pk_hashlen_helper.exit.pk_hashlen_helper.exit.thread_crit_edge.i.i: ; preds = %pk_hashlen_helper.exit.i.i
  %26 = zext i8 %25 to i64
  %.pre.i.i = load ptr, ptr %2, align 8, !tbaa !3
  br label %pk_hashlen_helper.exit.thread.i.i

pk_hashlen_helper.exit.thread.i.i:                ; preds = %pk_hashlen_helper.exit.pk_hashlen_helper.exit.thread_crit_edge.i.i, %23
  %27 = phi ptr [ %.pre.i.i, %pk_hashlen_helper.exit.pk_hashlen_helper.exit.thread_crit_edge.i.i ], [ %21, %23 ]
  %.01620.i.i = phi i64 [ %26, %pk_hashlen_helper.exit.pk_hashlen_helper.exit.thread_crit_edge.i.i ], [ %5, %23 ]
  %28 = getelementptr inbounds nuw i8, ptr %27, i64 32
  %29 = load ptr, ptr %28, align 8, !tbaa !43
  %30 = icmp eq ptr %29, null
  br i1 %30, label %mbedtls_pk_verify.exit, label %31

31:                                               ; preds = %pk_hashlen_helper.exit.thread.i.i
  %32 = tail call i32 %29(ptr noundef nonnull %2, i32 noundef %3, ptr noundef %4, i64 noundef %.01620.i.i, ptr noundef %6, i64 noundef %7) #7
  br label %mbedtls_pk_verify.exit

33:                                               ; preds = %18
  %34 = load ptr, ptr %2, align 8, !tbaa !3
  %35 = icmp eq ptr %34, null
  br i1 %35, label %mbedtls_pk_verify.exit, label %mbedtls_pk_get_type.exit

mbedtls_pk_get_type.exit:                         ; preds = %33
  %36 = load i32, ptr %34, align 8, !tbaa !21
  %.not41 = icmp eq i32 %36, 1
  br i1 %.not41, label %37, label %mbedtls_pk_verify.exit

37:                                               ; preds = %mbedtls_pk_get_type.exit
  %38 = icmp eq i32 %3, 0
  %39 = icmp ugt i64 %5, 4294967295
  %or.cond5 = and i1 %38, %39
  %40 = icmp eq ptr %1, null
  %or.cond44 = or i1 %40, %or.cond5
  br i1 %or.cond44, label %mbedtls_pk_verify.exit, label %mbedtls_pk_get_len.exit

mbedtls_pk_get_len.exit:                          ; preds = %37
  %41 = getelementptr inbounds nuw i8, ptr %34, i64 16
  %42 = load ptr, ptr %41, align 8, !tbaa !26
  %43 = tail call i64 %42(ptr noundef nonnull %2) #7
  %44 = add i64 %43, 7
  %45 = lshr i64 %44, 3
  %46 = icmp ult i64 %7, %45
  br i1 %46, label %mbedtls_pk_verify.exit, label %47

47:                                               ; preds = %mbedtls_pk_get_len.exit
  %.pr = load ptr, ptr %2, align 8
  %48 = icmp eq ptr %.pr, null
  br i1 %48, label %mbedtls_pk_rsa.exit, label %mbedtls_pk_get_type.exit.i

mbedtls_pk_get_type.exit.i:                       ; preds = %47
  %49 = getelementptr inbounds nuw i8, ptr %2, i64 8
  %50 = load ptr, ptr %49, align 8
  %51 = load i32, ptr %.pr, align 8, !tbaa !21
  %.fr.i = freeze i32 %51
  %cond.i = icmp eq i32 %.fr.i, 1
  %spec.select.i = select i1 %cond.i, ptr %50, ptr null
  br label %mbedtls_pk_rsa.exit

mbedtls_pk_rsa.exit:                              ; preds = %47, %mbedtls_pk_get_type.exit.i
  %52 = phi ptr [ null, %47 ], [ %spec.select.i, %mbedtls_pk_get_type.exit.i ]
  %53 = trunc i64 %5 to i32
  %54 = load i32, ptr %1, align 4, !tbaa !44
  %55 = getelementptr inbounds nuw i8, ptr %1, i64 4
  %56 = load i32, ptr %55, align 4, !tbaa !46
  %57 = tail call i32 @mbedtls_rsa_rsassa_pss_verify_ext(ptr noundef %52, i32 noundef %3, i32 noundef %53, ptr noundef %4, i32 noundef %54, i32 noundef %56, ptr noundef %6) #7
  %.not42 = icmp eq i32 %57, 0
  br i1 %.not42, label %58, label %mbedtls_pk_verify.exit

58:                                               ; preds = %mbedtls_pk_rsa.exit
  %59 = load ptr, ptr %2, align 8, !tbaa !3
  %60 = icmp eq ptr %59, null
  br i1 %60, label %mbedtls_pk_get_len.exit48, label %61

61:                                               ; preds = %58
  %62 = getelementptr inbounds nuw i8, ptr %59, i64 16
  %63 = load ptr, ptr %62, align 8, !tbaa !26
  %64 = tail call i64 %63(ptr noundef nonnull %2) #7
  %65 = add i64 %64, 7
  %66 = lshr i64 %65, 3
  br label %mbedtls_pk_get_len.exit48

mbedtls_pk_get_len.exit48:                        ; preds = %58, %61
  %.0.i.i47 = phi i64 [ %66, %61 ], [ 0, %58 ]
  %67 = icmp ugt i64 %7, %.0.i.i47
  %. = select i1 %67, i32 -14592, i32 0
  br label %mbedtls_pk_verify.exit

mbedtls_pk_verify.exit:                           ; preds = %33, %31, %pk_hashlen_helper.exit.thread.i.i, %pk_hashlen_helper.exit.i.i, %20, %37, %mbedtls_pk_get_len.exit, %mbedtls_pk_rsa.exit, %mbedtls_pk_get_len.exit48, %mbedtls_pk_get_type.exit, %19, %mbedtls_pk_can_do.exit, %12, %8
  %.0 = phi i32 [ -16000, %8 ], [ -16000, %12 ], [ -16128, %mbedtls_pk_can_do.exit ], [ -16000, %19 ], [ -14720, %mbedtls_pk_get_type.exit ], [ -16000, %37 ], [ -17280, %mbedtls_pk_get_len.exit ], [ %57, %mbedtls_pk_rsa.exit ], [ %., %mbedtls_pk_get_len.exit48 ], [ %32, %31 ], [ -16000, %pk_hashlen_helper.exit.i.i ], [ -16000, %20 ], [ -16128, %pk_hashlen_helper.exit.thread.i.i ], [ -14720, %33 ]
  ret i32 %.0
}